target datalayout = "e-m:e-p270:32:32-p271:32:32-p272:64:64-i64:64-i128:128-f80:128-n8:16:32:64-S128"
target triple = "x86_64-pc-linux-gnu"

%struct.pg_atomic_uint64 = type { i64 }
%struct.ProcSignalSlot = type { %struct.pg_atomic_uint32, i8, i32, [14 x i32], i8, %struct.pg_atomic_uint64, %struct.pg_atomic_uint32, %struct.ConditionVariable }
%struct.pg_atomic_uint32 = type { i32 }
%struct.ConditionVariable = type { i8, %struct.proclist_head }
%struct.proclist_head = type { i32, i32 }

@MyProcSignalSlot = internal global ptr null, align 8
@ProcSignalBarrierPending = external global i32, align 4
@MyLatch = external global ptr, align 8
@InterruptPending = external global i32, align 4

; Function Attrs: nounwind uwtable
define internal void @HandleProcSignalBarrierInterrupt() #0 {
  store volatile i32 1, ptr @InterruptPending, align 4
  store volatile i32 1, ptr @ProcSignalBarrierPending, align 4
  ret void
}

; Function Attrs: nounwind uwtable
define internal zeroext i1 @CheckProcSignal(i32 noundef %0) #0 {
  %2 = alloca i1, align 1
  %3 = alloca i32, align 4
  %4 = alloca ptr, align 8
  %5 = alloca i32, align 4
  store i32 %0, ptr %3, align 4
  call void @llvm.lifetime.start.p0(i64 8, ptr %4) #11
  %6 = load ptr, ptr @MyProcSignalSlot, align 8
  store ptr %6, ptr %4, align 8
  %7 = load ptr, ptr %4, align 8
  %8 = icmp ne ptr %7, null
  br i1 %8, label %9, label %24

9:                                                ; preds = %1
  %10 = load ptr, ptr %4, align 8
  %11 = getelementptr inbounds nuw %struct.ProcSignalSlot, ptr %10, i32 0, i32 3
  %12 = load i32, ptr %3, align 4
  %13 = zext i32 %12 to i64
  %14 = getelementptr inbounds nuw [14 x i32], ptr %11, i64 0, i64 %13
  %15 = load volatile i32, ptr %14, align 4
  %16 = icmp ne i32 %15, 0
  br i1 %16, label %17, label %23

17:                                               ; preds = %9
  %18 = load ptr, ptr %4, align 8
  %19 = getelementptr inbounds nuw %struct.ProcSignalSlot, ptr %18, i32 0, i32 3
  %20 = load i32, ptr %3, align 4
  %21 = zext i32 %20 to i64
  %22 = getelementptr inbounds nuw [14 x i32], ptr %19, i64 0, i64 %21
  store volatile i32 0, ptr %22, align 4
  store i1 true, ptr %2, align 1
  store i32 1, ptr %5, align 4
  br label %25

23:                                               ; preds = %9
  br label %24

24:                                               ; preds = %23, %1
  store i1 false, ptr %2, align 1
  store i32 1, ptr %5, align 4
  br label %25

25:                                               ; preds = %24, %17
  call void @llvm.lifetime.end.p0(i64 8, ptr %4) #11
  %26 = load i1, ptr %2, align 1
  ret i1 %26
}

; Function Attrs: nounwind uwtable
define dso_local void @procsignal_sigusr1_handler(i32 noundef %0) #0 {
  %2 = alloca i32, align 4
  store i32 %0, ptr %2, align 4
  %3 = call zeroext i1 @CheckProcSignal(i32 noundef 0)
  br i1 %3, label %4, label %5

4:                                                ; preds = %1
  call void @HandleCatchupInterrupt()
  br label %5

5:                                                ; preds = %4, %1
  %6 = call zeroext i1 @CheckProcSignal(i32 noundef 1)
  br i1 %6, label %7, label %8

7:                                                ; preds = %5
  call void @HandleNotifyInterrupt()
  br label %8

8:                                                ; preds = %7, %5
  %9 = call zeroext i1 @CheckProcSignal(i32 noundef 2)
  br i1 %9, label %10, label %11

10:                                               ; preds = %8
  call void @HandleParallelMessageInterrupt()
  br label %11

11:                                               ; preds = %10, %8
  %12 = call zeroext i1 @CheckProcSignal(i32 noundef 3)
  br i1 %12, label %13, label %14

13:                                               ; preds = %11
  call void @HandleWalSndInitStopping()
  br label %14

14:                                               ; preds = %13, %11
  %15 = call zeroext i1 @CheckProcSignal(i32 noundef 4)
  br i1 %15, label %16, label %17

16:                                               ; preds = %14
  call void @HandleProcSignalBarrierInterrupt()
  br label %17

17:                                               ; preds = %16, %14
  %18 = call zeroext i1 @CheckProcSignal(i32 noundef 5)
  br i1 %18, label %19, label %20

19:                                               ; preds = %17
  call void @HandleLogMemoryContextInterrupt()
  br label %20

20:                                               ; preds = %19, %17
  %21 = call zeroext i1 @CheckProcSignal(i32 noundef 6)
  br i1 %21, label %22, label %23

22:                                               ; preds = %20
  call void @HandleParallelApplyMessageInterrupt()
  br label %23

23:                                               ; preds = %22, %20
  %24 = call zeroext i1 @CheckProcSignal(i32 noundef 7)
  br i1 %24, label %25, label %26

25:                                               ; preds = %23
  call void @HandleRecoveryConflictInterrupt(i32 noundef 7)
  br label %26

26:                                               ; preds = %25, %23
  %27 = call zeroext i1 @CheckProcSignal(i32 noundef 8)
  br i1 %27, label %28, label %29

28:                                               ; preds = %26
  call void @HandleRecoveryConflictInterrupt(i32 noundef 8)
  br label %29

29:                                               ; preds = %28, %26
  %30 = call zeroext i1 @CheckProcSignal(i32 noundef 9)
  br i1 %30, label %31, label %32

31:                                               ; preds = %29
  call void @HandleRecoveryConflictInterrupt(i32 noundef 9)
  br label %32

32:                                               ; preds = %31, %29
  %33 = call zeroext i1 @CheckProcSignal(i32 noundef 10)
  br i1 %33, label %34, label %35

34:                                               ; preds = %32
  call void @HandleRecoveryConflictInterrupt(i32 noundef 10)
  br label %35

35:                                               ; preds = %34, %32
  %36 = call zeroext i1 @CheckProcSignal(i32 noundef 11)
  br i1 %36, label %37, label %38

37:                                               ; preds = %35
  call void @HandleRecoveryConflictInterrupt(i32 noundef 11)
  br label %38

38:                                               ; preds = %37, %35
  %39 = call zeroext i1 @CheckProcSignal(i32 noundef 13)
  br i1 %39, label %40, label %41

40:                                               ; preds = %38
  call void @HandleRecoveryConflictInterrupt(i32 noundef 13)
  br label %41

41:                                               ; preds = %40, %38
  %42 = call zeroext i1 @CheckProcSignal(i32 noundef 12)
  br i1 %42, label %43, label %44

43:                                               ; preds = %41
  call void @HandleRecoveryConflictInterrupt(i32 noundef 12)
  br label %44

44:                                               ; preds = %43, %41
  %45 = load ptr, ptr @MyLatch, align 8
  call void @SetLatch(ptr noundef %45)
  ret void
}