; Function Attrs: nounwind uwtable
define dso_local void @procsignal_sigusr1_handler(i32 noundef %0) local_unnamed_addr #0 {
  %2 = load ptr, ptr @MyProcSignalSlot, align 8
  %.not.i = icmp eq ptr %2, null
  br i1 %.not.i, label %CheckProcSignal.exit52.thread, label %3

3:                                                ; preds = %1
  %4 = getelementptr inbounds nuw i8, ptr %2, i64 12
  %5 = load volatile i32, ptr %4, align 4
  %.not6.i = icmp eq i32 %5, 0
  br i1 %.not6.i, label %CheckProcSignal.exit.thread.thread, label %CheckProcSignal.exit.thread

CheckProcSignal.exit.thread:                      ; preds = %3
  store volatile i32 0, ptr %4, align 4
  tail call void @HandleCatchupInterrupt() #11
  %.pr.pre = load ptr, ptr @MyProcSignalSlot, align 8
  %.not.i1 = icmp eq ptr %.pr.pre, null
  br i1 %.not.i1, label %CheckProcSignal.exit52.thread, label %CheckProcSignal.exit.thread.thread

CheckProcSignal.exit.thread.thread:               ; preds = %3, %CheckProcSignal.exit.thread
  %.pr155 = phi ptr [ %.pr.pre, %CheckProcSignal.exit.thread ], [ %2, %3 ]
  %6 = getelementptr inbounds nuw i8, ptr %.pr155, i64 16
  %7 = load volatile i32, ptr %6, align 4
  %.not6.i2 = icmp eq i32 %7, 0
  br i1 %.not6.i2, label %CheckProcSignal.exit4.thread.thread, label %CheckProcSignal.exit4.thread

CheckProcSignal.exit4.thread:                     ; preds = %CheckProcSignal.exit.thread.thread
  store volatile i32 0, ptr %6, align 4
  tail call void @HandleNotifyInterrupt() #11
  %.pr69.pre = load ptr, ptr @MyProcSignalSlot, align 8
  %.not.i5 = icmp eq ptr %.pr69.pre, null
  br i1 %.not.i5, label %CheckProcSignal.exit52.thread, label %CheckProcSignal.exit4.thread.thread

CheckProcSignal.exit4.thread.thread:              ; preds = %CheckProcSignal.exit.thread.thread, %CheckProcSignal.exit4.thread
  %.pr69158 = phi ptr [ %.pr69.pre, %CheckProcSignal.exit4.thread ], [ %.pr155, %CheckProcSignal.exit.thread.thread ]
  %8 = getelementptr inbounds nuw i8, ptr %.pr69158, i64 20
  %9 = load volatile i32, ptr %8, align 4
  %.not6.i6 = icmp eq i32 %9, 0
  br i1 %.not6.i6, label %CheckProcSignal.exit8.thread.thread, label %CheckProcSignal.exit8.thread

CheckProcSignal.exit8.thread:                     ; preds = %CheckProcSignal.exit4.thread.thread
  store volatile i32 0, ptr %8, align 4
  tail call void @HandleParallelMessageInterrupt() #11
  %.pr71.pr.pre = load ptr, ptr @MyProcSignalSlot, align 8
  %.not.i9 = icmp eq ptr %.pr71.pr.pre, null
  br i1 %.not.i9, label %CheckProcSignal.exit52.thread, label %CheckProcSignal.exit8.thread.thread

CheckProcSignal.exit8.thread.thread:              ; preds = %CheckProcSignal.exit4.thread.thread, %CheckProcSignal.exit8.thread
  %.pr71.pr161 = phi ptr [ %.pr71.pr.pre, %CheckProcSignal.exit8.thread ], [ %.pr69158, %CheckProcSignal.exit4.thread.thread ]
  %10 = getelementptr inbounds nuw i8, ptr %.pr71.pr161, i64 24
  %11 = load volatile i32, ptr %10, align 4
  %.not6.i10 = icmp eq i32 %11, 0
  br i1 %.not6.i10, label %CheckProcSignal.exit12.thread.thread, label %CheckProcSignal.exit12.thread

CheckProcSignal.exit12.thread:                    ; preds = %CheckProcSignal.exit8.thread.thread
  store volatile i32 0, ptr %10, align 4
  tail call void @HandleWalSndInitStopping() #11
  %.pr73.pre = load ptr, ptr @MyProcSignalSlot, align 8
  %.not.i13 = icmp eq ptr %.pr73.pre, null
  br i1 %.not.i13, label %CheckProcSignal.exit52.thread, label %CheckProcSignal.exit12.thread.thread

CheckProcSignal.exit12.thread.thread:             ; preds = %CheckProcSignal.exit8.thread.thread, %CheckProcSignal.exit12.thread
  %.pr73164 = phi ptr [ %.pr73.pre, %CheckProcSignal.exit12.thread ], [ %.pr71.pr161, %CheckProcSignal.exit8.thread.thread ]
  %12 = getelementptr inbounds nuw i8, ptr %.pr73164, i64 28
  %13 = load volatile i32, ptr %12, align 4
  %.not6.i14 = icmp eq i32 %13, 0
  br i1 %.not6.i14, label %14, label %.thread

.thread:                                          ; preds = %CheckProcSignal.exit12.thread.thread
  store volatile i32 0, ptr %12, align 4
  store volatile i32 1, ptr @InterruptPending, align 4
  store volatile i32 1, ptr @ProcSignalBarrierPending, align 4
  br label %14

14:                                               ; preds = %CheckProcSignal.exit12.thread.thread, %.thread
  %15 = getelementptr inbounds nuw i8, ptr %.pr73164, i64 32
  %16 = load volatile i32, ptr %15, align 4
  %.not6.i18 = icmp eq i32 %16, 0
  br i1 %.not6.i18, label %CheckProcSignal.exit20.thread.thread, label %CheckProcSignal.exit20.thread

CheckProcSignal.exit20.thread:                    ; preds = %14
  store volatile i32 0, ptr %15, align 4
  tail call void @HandleLogMemoryContextInterrupt() #11
  %.pr75.pr.pr.pre = load ptr, ptr @MyProcSignalSlot, align 8
  %.not.i21 = icmp eq ptr %.pr75.pr.pr.pre, null
  br i1 %.not.i21, label %CheckProcSignal.exit52.thread, label %CheckProcSignal.exit20.thread.thread

CheckProcSignal.exit20.thread.thread:             ; preds = %14, %CheckProcSignal.exit20.thread
  %.pr75.pr.pr167 = phi ptr [ %.pr75.pr.pr.pre, %CheckProcSignal.exit20.thread ], [ %.pr73164, %14 ]
  %17 = getelementptr inbounds nuw i8, ptr %.pr75.pr.pr167, i64 36
  %18 = load volatile i32, ptr %17, align 4
  %.not6.i22 = icmp eq i32 %18, 0
  br i1 %.not6.i22, label %CheckProcSignal.exit24.thread.thread, label %CheckProcSignal.exit24.thread

CheckProcSignal.exit24.thread:                    ; preds = %CheckProcSignal.exit20.thread.thread
  store volatile i32 0, ptr %17, align 4
  tail call void @HandleParallelApplyMessageInterrupt() #11
  %.pr77.pre = load ptr, ptr @MyProcSignalSlot, align 8
  %.not.i25 = icmp eq ptr %.pr77.pre, null
  br i1 %.not.i25, label %CheckProcSignal.exit52.thread, label %CheckProcSignal.exit24.thread.thread

CheckProcSignal.exit24.thread.thread:             ; preds = %CheckProcSignal.exit20.thread.thread, %CheckProcSignal.exit24.thread
  %.pr77170 = phi ptr [ %.pr77.pre, %CheckProcSignal.exit24.thread ], [ %.pr75.pr.pr167, %CheckProcSignal.exit20.thread.thread ]
  %19 = getelementptr inbounds nuw i8, ptr %.pr77170, i64 40
  %20 = load volatile i32, ptr %19, align 4
  %.not6.i26 = icmp eq i32 %20, 0
  br i1 %.not6.i26, label %CheckProcSignal.exit28.thread.thread, label %CheckProcSignal.exit28.thread

CheckProcSignal.exit28.thread:                    ; preds = %CheckProcSignal.exit24.thread.thread
  store volatile i32 0, ptr %19, align 4
  tail call void @HandleRecoveryConflictInterrupt(i32 noundef 7) #11
  %.pr79.pr.pr.pre = load ptr, ptr @MyProcSignalSlot, align 8
  %.not.i29 = icmp eq ptr %.pr79.pr.pr.pre, null
  br i1 %.not.i29, label %CheckProcSignal.exit52.thread, label %CheckProcSignal.exit28.thread.thread

CheckProcSignal.exit28.thread.thread:             ; preds = %CheckProcSignal.exit24.thread.thread, %CheckProcSignal.exit28.thread
  %.pr79.pr.pr173 = phi ptr [ %.pr79.pr.pr.pre, %CheckProcSignal.exit28.thread ], [ %.pr77170, %CheckProcSignal.exit24.thread.thread ]
  %21 = getelementptr inbounds nuw i8, ptr %.pr79.pr.pr173, i64 44
  %22 = load volatile i32, ptr %21, align 4
  %.not6.i30 = icmp eq i32 %22, 0
  br i1 %.not6.i30, label %CheckProcSignal.exit32.thread.thread, label %CheckProcSignal.exit32.thread

CheckProcSignal.exit32.thread:                    ; preds = %CheckProcSignal.exit28.thread.thread
  store volatile i32 0, ptr %21, align 4
  tail call void @HandleRecoveryConflictInterrupt(i32 noundef 8) #11
  %.pr81.pre = load ptr, ptr @MyProcSignalSlot, align 8
  %.not.i33 = icmp eq ptr %.pr81.pre, null
  br i1 %.not.i33, label %CheckProcSignal.exit52.thread, label %CheckProcSignal.exit32.thread.thread

CheckProcSignal.exit32.thread.thread:             ; preds = %CheckProcSignal.exit28.thread.thread, %CheckProcSignal.exit32.thread
  %.pr81176 = phi ptr [ %.pr81.pre, %CheckProcSignal.exit32.thread ], [ %.pr79.pr.pr173, %CheckProcSignal.exit28.thread.thread ]
  %23 = getelementptr inbounds nuw i8, ptr %.pr81176, i64 48
  %24 = load volatile i32, ptr %23, align 4
  %.not6.i34 = icmp eq i32 %24, 0
  br i1 %.not6.i34, label %CheckProcSignal.exit36.thread.thread, label %CheckProcSignal.exit36.thread

CheckProcSignal.exit36.thread:                    ; preds = %CheckProcSignal.exit32.thread.thread
  store volatile i32 0, ptr %23, align 4
  tail call void @HandleRecoveryConflictInterrupt(i32 noundef 9) #11
  %.pr83.pr.pr.pr.pre = load ptr, ptr @MyProcSignalSlot, align 8
  %.not.i37 = icmp eq ptr %.pr83.pr.pr.pr.pre, null
  br i1 %.not.i37, label %CheckProcSignal.exit52.thread, label %CheckProcSignal.exit36.thread.thread

CheckProcSignal.exit36.thread.thread:             ; preds = %CheckProcSignal.exit32.thread.thread, %CheckProcSignal.exit36.thread
  %.pr83.pr.pr.pr179 = phi ptr [ %.pr83.pr.pr.pr.pre, %CheckProcSignal.exit36.thread ], [ %.pr81176, %CheckProcSignal.exit32.thread.thread ]
  %25 = getelementptr inbounds nuw i8, ptr %.pr83.pr.pr.pr179, i64 52
  %26 = load volatile i32, ptr %25, align 4
  %.not6.i38 = icmp eq i32 %26, 0
  br i1 %.not6.i38, label %CheckProcSignal.exit40.thread.thread, label %CheckProcSignal.exit40.thread

CheckProcSignal.exit40.thread:                    ; preds = %CheckProcSignal.exit36.thread.thread
  store volatile i32 0, ptr %25, align 4
  tail call void @HandleRecoveryConflictInterrupt(i32 noundef 10) #11
  %.pr85.pre = load ptr, ptr @MyProcSignalSlot, align 8
  %.not.i41 = icmp eq ptr %.pr85.pre, null
  br i1 %.not.i41, label %CheckProcSignal.exit52.thread, label %CheckProcSignal.exit40.thread.thread

CheckProcSignal.exit40.thread.thread:             ; preds = %CheckProcSignal.exit36.thread.thread, %CheckProcSignal.exit40.thread
  %.pr85182 = phi ptr [ %.pr85.pre, %CheckProcSignal.exit40.thread ], [ %.pr83.pr.pr.pr179, %CheckProcSignal.exit36.thread.thread ]
  %27 = getelementptr inbounds nuw i8, ptr %.pr85182, i64 56
  %28 = load volatile i32, ptr %27, align 4
  %.not6.i42 = icmp eq i32 %28, 0
  br i1 %.not6.i42, label %CheckProcSignal.exit44.thread.thread, label %CheckProcSignal.exit44.thread

CheckProcSignal.exit44.thread:                    ; preds = %CheckProcSignal.exit40.thread.thread
  store volatile i32 0, ptr %27, align 4
  tail call void @HandleRecoveryConflictInterrupt(i32 noundef 11) #11
  %.pr87.pr.pr.pr.pre = load ptr, ptr @MyProcSignalSlot, align 8
  %.not.i45 = icmp eq ptr %.pr87.pr.pr.pr.pre, null
  br i1 %.not.i45, label %CheckProcSignal.exit52.thread, label %CheckProcSignal.exit44.thread.thread

CheckProcSignal.exit44.thread.thread:             ; preds = %CheckProcSignal.exit40.thread.thread, %CheckProcSignal.exit44.thread
  %.pr87.pr.pr.pr185 = phi ptr [ %.pr87.pr.pr.pr.pre, %CheckProcSignal.exit44.thread ], [ %.pr85182, %CheckProcSignal.exit40.thread.thread ]
  %29 = getelementptr inbounds nuw i8, ptr %.pr87.pr.pr.pr185, i64 64
  %30 = load volatile i32, ptr %29, align 4
  %.not6.i46 = icmp eq i32 %30, 0
  br i1 %.not6.i46, label %CheckProcSignal.exit48.thread.thread, label %CheckProcSignal.exit48.thread

CheckProcSignal.exit48.thread:                    ; preds = %CheckProcSignal.exit44.thread.thread
  store volatile i32 0, ptr %29, align 4
  tail call void @HandleRecoveryConflictInterrupt(i32 noundef 13) #11
  %.pr89.pre = load ptr, ptr @MyProcSignalSlot, align 8
  %.not.i49 = icmp eq ptr %.pr89.pre, null
  br i1 %.not.i49, label %CheckProcSignal.exit52.thread, label %CheckProcSignal.exit48.thread.thread

CheckProcSignal.exit48.thread.thread:             ; preds = %CheckProcSignal.exit44.thread.thread, %CheckProcSignal.exit48.thread
  %.pr89188 = phi ptr [ %.pr89.pre, %CheckProcSignal.exit48.thread ], [ %.pr87.pr.pr.pr185, %CheckProcSignal.exit44.thread.thread ]
  %31 = getelementptr inbounds nuw i8, ptr %.pr89188, i64 60
  %32 = load volatile i32, ptr %31, align 4
  %.not6.i50 = icmp eq i32 %32, 0
  br i1 %.not6.i50, label %CheckProcSignal.exit52.thread, label %33

33:                                               ; preds = %CheckProcSignal.exit48.thread.thread
  store volatile i32 0, ptr %31, align 4
  tail call void @HandleRecoveryConflictInterrupt(i32 noundef 12) #11
  br label %CheckProcSignal.exit52.thread

CheckProcSignal.exit52.thread:                    ; preds = %CheckProcSignal.exit8.thread, %CheckProcSignal.exit4.thread, %CheckProcSignal.exit.thread, %1, %CheckProcSignal.exit24.thread, %CheckProcSignal.exit28.thread, %CheckProcSignal.exit12.thread, %CheckProcSignal.exit20.thread, %CheckProcSignal.exit36.thread, %CheckProcSignal.exit32.thread, %CheckProcSignal.exit40.thread, %CheckProcSignal.exit44.thread, %CheckProcSignal.exit48.thread, %CheckProcSignal.exit48.thread.thread, %33
  %34 = load ptr, ptr @MyLatch, align 8
  tail call void @SetLatch(ptr noundef %34) #11
  ret void
}